; Function Attrs: mustprogress nofree norecurse nosync nounwind willreturn memory(readwrite, inaccessiblemem: none) uwtable
define hidden noundef zeroext i1 @_ZN12Continuation3pinEP10JavaThread(ptr nocapture noundef readonly %0) local_unnamed_addr #1 align 2 {
  %2 = getelementptr inbounds i8, ptr %0, i64 1336
  %3 = load ptr, ptr %2, align 8
  %4 = icmp eq ptr %3, null
  br i1 %4, label %_ZN17ContinuationEntry3pinEv.exit, label %5

5:                                                ; preds = %1
  %6 = getelementptr inbounds i8, ptr %3, i64 56
  %7 = load i32, ptr %6, align 8
  %.not = icmp eq i32 %7, -1
  br i1 %.not, label %_ZN17ContinuationEntry3pinEv.exit, label %8

8:                                                ; preds = %5
  %9 = add nuw i32 %7, 1
  store i32 %9, ptr %6, align 8
  br label %_ZN17ContinuationEntry3pinEv.exit

_ZN17ContinuationEntry3pinEv.exit:                ; preds = %8, %5, %1
  %.0 = phi i1 [ true, %1 ], [ false, %5 ], [ true, %8 ]
  ret i1 %.0
}